target datalayout = "e-m:e-p270:32:32-p271:32:32-p272:64:64-i64:64-f80:128-n8:16:32:64-S128"
target triple = "x86_64-pc-linux-gnu"

@.str = private unnamed_addr constant [4 x i8] c"%d\0A\00", align 1
@.str.1 = private unnamed_addr constant [7 x i8] c"%d%d%d\00", align 1
@.str.2 = private unnamed_addr constant [29 x i8] c"(%d,%d,%d)-(%d,%d,%d)=%.2lf\0A\00", align 1

; Function Attrs: noinline nounwind uwtable
define dso_local i32 @main() #0 {
  %1 = alloca i32, align 4
  %2 = alloca i32, align 4
  %3 = alloca i32, align 4
  %4 = alloca i8*, align 8
  %5 = alloca i64, align 8
  %6 = alloca [10 x [10 x double]], align 16
  %7 = alloca double, align 8
  %8 = alloca i32, align 4
  %9 = alloca i32, align 4
  %10 = alloca i32, align 4
  %11 = alloca i32, align 4
  %12 = alloca i32, align 4
  %13 = alloca i32, align 4
  %14 = alloca i32, align 4
  %15 = alloca i32, align 4
  %16 = alloca i32, align 4
  %17 = alloca i32, align 4
  %18 = alloca i32, align 4
  store i32 0, i32* %1, align 4
  %19 = call i32 (i8*, ...) @__isoc99_scanf(i8* getelementptr inbounds ([4 x i8], [4 x i8]* @.str, i64 0, i64 0), i32* %2)
  %20 = load i32, i32* %2, align 4
  %21 = zext i32 %20 to i64
  %22 = call i8* @llvm.stacksave()
  store i8* %22, i8** %4, align 8
  %23 = alloca [3 x i32], i64 %21, align 16
  store i64 %21, i64* %5, align 8
  store i32 0, i32* %8, align 4
  br label %24

24:                                               ; preds = %42, %0
  %25 = load i32, i32* %8, align 4
  %26 = load i32, i32* %2, align 4
  %27 = icmp slt i32 %25, %26
  br i1 %27, label %28, label %45

28:                                               ; preds = %24
  %29 = load i32, i32* %8, align 4
  %30 = sext i32 %29 to i64
  %31 = getelementptr inbounds [3 x i32], [3 x i32]* %23, i64 %30
  %32 = getelementptr inbounds [3 x i32], [3 x i32]* %31, i64 0, i64 0
  %33 = load i32, i32* %8, align 4
  %34 = sext i32 %33 to i64
  %35 = getelementptr inbounds [3 x i32], [3 x i32]* %23, i64 %34
  %36 = getelementptr inbounds [3 x i32], [3 x i32]* %35, i64 0, i64 1
  %37 = load i32, i32* %8, align 4
  %38 = sext i32 %37 to i64
  %39 = getelementptr inbounds [3 x i32], [3 x i32]* %23, i64 %38
  %40 = getelementptr inbounds [3 x i32], [3 x i32]* %39, i64 0, i64 2
  %41 = call i32 (i8*, ...) @__isoc99_scanf(i8* getelementptr inbounds ([7 x i8], [7 x i8]* @.str.1, i64 0, i64 0), i32* %32, i32* %36, i32* %40)
  br label %42

42:                                               ; preds = %28
  %43 = load i32, i32* %8, align 4
  %44 = add nsw i32 %43, 1
  store i32 %44, i32* %8, align 4
  br label %24

45:                                               ; preds = %24
  store i32 0, i32* %9, align 4
  br label %46

46:                                               ; preds = %69, %45
  %47 = load i32, i32* %9, align 4
  %48 = load i32, i32* %2, align 4
  %49 = sub nsw i32 %48, 1
  %50 = icmp slt i32 %47, %49
  br i1 %50, label %51, label %72

51:                                               ; preds = %46
  %52 = load i32, i32* %9, align 4
  %53 = add nsw i32 %52, 1
  store i32 %53, i32* %10, align 4
  br label %54

54:                                               ; preds = %65, %51
  %55 = load i32, i32* %10, align 4
  %56 = load i32, i32* %2, align 4
  %57 = icmp slt i32 %55, %56
  br i1 %57, label %58, label %68

58:                                               ; preds = %54
  %59 = load i32, i32* %9, align 4
  %60 = sext i32 %59 to i64
  %61 = getelementptr inbounds [10 x [10 x double]], [10 x [10 x double]]* %6, i64 0, i64 %60
  %62 = load i32, i32* %10, align 4
  %63 = sext i32 %62 to i64
  %64 = getelementptr inbounds [10 x double], [10 x double]* %61, i64 0, i64 %63
  store double 0.000000e+00, double* %64, align 8
  br label %65

65:                                               ; preds = %58
  %66 = load i32, i32* %10, align 4
  %67 = add nsw i32 %66, 1
  store i32 %67, i32* %10, align 4
  br label %54

68:                                               ; preds = %54
  br label %69

69:                                               ; preds = %68
  %70 = load i32, i32* %9, align 4
  %71 = add nsw i32 %70, 1
  store i32 %71, i32* %9, align 4
  br label %46

72:                                               ; preds = %46
  store i32 0, i32* %11, align 4
  br label %73

73:                                               ; preds = %169, %72
  %74 = load i32, i32* %11, align 4
  %75 = load i32, i32* %2, align 4
  %76 = sub nsw i32 %75, 1
  %77 = icmp slt i32 %74, %76
  br i1 %77, label %78, label %172

78:                                               ; preds = %73
  %79 = load i32, i32* %11, align 4
  %80 = add nsw i32 %79, 1
  store i32 %80, i32* %12, align 4
  br label %81

81:                                               ; preds = %165, %78
  %82 = load i32, i32* %12, align 4
  %83 = load i32, i32* %2, align 4
  %84 = icmp slt i32 %82, %83
  br i1 %84, label %85, label %168

85:                                               ; preds = %81
  %86 = load i32, i32* %11, align 4
  %87 = sext i32 %86 to i64
  %88 = getelementptr inbounds [3 x i32], [3 x i32]* %23, i64 %87
  %89 = getelementptr inbounds [3 x i32], [3 x i32]* %88, i64 0, i64 0
  %90 = load i32, i32* %89, align 4
  %91 = load i32, i32* %12, align 4
  %92 = sext i32 %91 to i64
  %93 = getelementptr inbounds [3 x i32], [3 x i32]* %23, i64 %92
  %94 = getelementptr inbounds [3 x i32], [3 x i32]* %93, i64 0, i64 0
  %95 = load i32, i32* %94, align 4
  %96 = sub nsw i32 %90, %95
  %97 = load i32, i32* %11, align 4
  %98 = sext i32 %97 to i64
  %99 = getelementptr inbounds [3 x i32], [3 x i32]* %23, i64 %98
  %100 = getelementptr inbounds [3 x i32], [3 x i32]* %99, i64 0, i64 0
  %101 = load i32, i32* %100, align 4
  %102 = load i32, i32* %12, align 4
  %103 = sext i32 %102 to i64
  %104 = getelementptr inbounds [3 x i32], [3 x i32]* %23, i64 %103
  %105 = getelementptr inbounds [3 x i32], [3 x i32]* %104, i64 0, i64 0
  %106 = load i32, i32* %105, align 4
  %107 = sub nsw i32 %101, %106
  %108 = mul nsw i32 %96, %107
  %109 = load i32, i32* %11, align 4
  %110 = sext i32 %109 to i64
  %111 = getelementptr inbounds [3 x i32], [3 x i32]* %23, i64 %110
  %112 = getelementptr inbounds [3 x i32], [3 x i32]* %111, i64 0, i64 1
  %113 = load i32, i32* %112, align 4
  %114 = load i32, i32* %12, align 4
  %115 = sext i32 %114 to i64
  %116 = getelementptr inbounds [3 x i32], [3 x i32]* %23, i64 %115
  %117 = getelementptr inbounds [3 x i32], [3 x i32]* %116, i64 0, i64 1
  %118 = load i32, i32* %117, align 4
  %119 = sub nsw i32 %113, %118
  %120 = load i32, i32* %11, align 4
  %121 = sext i32 %120 to i64
  %122 = getelementptr inbounds [3 x i32], [3 x i32]* %23, i64 %121
  %123 = getelementptr inbounds [3 x i32], [3 x i32]* %122, i64 0, i64 1
  %124 = load i32, i32* %123, align 4
  %125 = load i32, i32* %12, align 4
  %126 = sext i32 %125 to i64
  %127 = getelementptr inbounds [3 x i32], [3 x i32]* %23, i64 %126
  %128 = getelementptr inbounds [3 x i32], [3 x i32]* %127, i64 0, i64 1
  %129 = load i32, i32* %128, align 4
  %130 = sub nsw i32 %124, %129
  %131 = mul nsw i32 %119, %130
  %132 = add nsw i32 %108, %131
  %133 = load i32, i32* %11, align 4
  %134 = sext i32 %133 to i64
  %135 = getelementptr inbounds [3 x i32], [3 x i32]* %23, i64 %134
  %136 = getelementptr inbounds [3 x i32], [3 x i32]* %135, i64 0, i64 2
  %137 = load i32, i32* %136, align 4
  %138 = load i32, i32* %12, align 4
  %139 = sext i32 %138 to i64
  %140 = getelementptr inbounds [3 x i32], [3 x i32]* %23, i64 %139
  %141 = getelementptr inbounds [3 x i32], [3 x i32]* %140, i64 0, i64 2
  %142 = load i32, i32* %141, align 4
  %143 = sub nsw i32 %137, %142
  %144 = load i32, i32* %11, align 4
  %145 = sext i32 %144 to i64
  %146 = getelementptr inbounds [3 x i32], [3 x i32]* %23, i64 %145
  %147 = getelementptr inbounds [3 x i32], [3 x i32]* %146, i64 0, i64 2
  %148 = load i32, i32* %147, align 4
  %149 = load i32, i32* %12, align 4
  %150 = sext i32 %149 to i64
  %151 = getelementptr inbounds [3 x i32], [3 x i32]* %23, i64 %150
  %152 = getelementptr inbounds [3 x i32], [3 x i32]* %151, i64 0, i64 2
  %153 = load i32, i32* %152, align 4
  %154 = sub nsw i32 %148, %153
  %155 = mul nsw i32 %143, %154
  %156 = add nsw i32 %132, %155
  %157 = sitofp i32 %156 to double
  %158 = call double @sqrt(double %157) #2
  %159 = load i32, i32* %11, align 4
  %160 = sext i32 %159 to i64
  %161 = getelementptr inbounds [10 x [10 x double]], [10 x [10 x double]]* %6, i64 0, i64 %160
  %162 = load i32, i32* %12, align 4
  %163 = sext i32 %162 to i64
  %164 = getelementptr inbounds [10 x double], [10 x double]* %161, i64 0, i64 %163
  store double %158, double* %164, align 8
  br label %165

165:                                              ; preds = %85
  %166 = load i32, i32* %12, align 4
  %167 = add nsw i32 %166, 1
  store i32 %167, i32* %12, align 4
  br label %81

168:                                              ; preds = %81
  br label %169

169:                                              ; preds = %168
  %170 = load i32, i32* %11, align 4
  %171 = add nsw i32 %170, 1
  store i32 %171, i32* %11, align 4
  br label %73

172:                                              ; preds = %73
  store double 0.000000e+00, double* %7, align 8
  store i32 0, i32* %16, align 4
  %173 = load i32, i32* %2, align 4
  %174 = load i32, i32* %2, align 4
  %175 = sub nsw i32 %174, 1
  %176 = mul nsw i32 %173, %175
  %177 = sdiv i32 %176, 2
  store i32 %177, i32* %13, align 4
  store i32 0, i32* %17, align 4
  br label %178

178:                                              ; preds = %264, %172
  %179 = load i32, i32* %17, align 4
  %180 = icmp slt i32 %179, 9
  br i1 %180, label %181, label %267

181:                                              ; preds = %178
  %182 = load i32, i32* %16, align 4
  %183 = load i32, i32* %13, align 4
  %184 = icmp eq i32 %182, %183
  br i1 %184, label %185, label %186

185:                                              ; preds = %181
  br label %267

186:                                              ; preds = %181
  %187 = load i32, i32* %17, align 4
  %188 = add nsw i32 %187, 1
  store i32 %188, i32* %18, align 4
  br label %189

189:                                              ; preds = %260, %186
  %190 = load i32, i32* %18, align 4
  %191 = icmp slt i32 %190, 10
  br i1 %191, label %192, label %263

192:                                              ; preds = %189
  %193 = load double, double* %7, align 8
  %194 = load i32, i32* %17, align 4
  %195 = sext i32 %194 to i64
  %196 = getelementptr inbounds [10 x [10 x double]], [10 x [10 x double]]* %6, i64 0, i64 %195
  %197 = load i32, i32* %18, align 4
  %198 = sext i32 %197 to i64
  %199 = getelementptr inbounds [10 x double], [10 x double]* %196, i64 0, i64 %198
  %200 = load double, double* %199, align 8
  %201 = fcmp olt double %193, %200
  br i1 %201, label %202, label %212

202:                                              ; preds = %192
  %203 = load i32, i32* %17, align 4
  %204 = sext i32 %203 to i64
  %205 = getelementptr inbounds [10 x [10 x double]], [10 x [10 x double]]* %6, i64 0, i64 %204
  %206 = load i32, i32* %18, align 4
  %207 = sext i32 %206 to i64
  %208 = getelementptr inbounds [10 x double], [10 x double]* %205, i64 0, i64 %207
  %209 = load double, double* %208, align 8
  store double %209, double* %7, align 8
  %210 = load i32, i32* %17, align 4
  store i32 %210, i32* %14, align 4
  %211 = load i32, i32* %18, align 4
  store i32 %211, i32* %15, align 4
  br label %212

212:                                              ; preds = %202, %192
  %213 = load i32, i32* %17, align 4
  %214 = icmp eq i32 %213, 8
  br i1 %214, label %215, label %259

215:                                              ; preds = %212
  %216 = load i32, i32* %18, align 4
  %217 = icmp eq i32 %216, 9
  br i1 %217, label %218, label %259

218:                                              ; preds = %215
  %219 = load i32, i32* %14, align 4
  %220 = sext i32 %219 to i64
  %221 = getelementptr inbounds [3 x i32], [3 x i32]* %23, i64 %220
  %222 = getelementptr inbounds [3 x i32], [3 x i32]* %221, i64 0, i64 0
  %223 = load i32, i32* %222, align 4
  %224 = load i32, i32* %14, align 4
  %225 = sext i32 %224 to i64
  %226 = getelementptr inbounds [3 x i32], [3 x i32]* %23, i64 %225
  %227 = getelementptr inbounds [3 x i32], [3 x i32]* %226, i64 0, i64 1
  %228 = load i32, i32* %227, align 4
  %229 = load i32, i32* %14, align 4
  %230 = sext i32 %229 to i64
  %231 = getelementptr inbounds [3 x i32], [3 x i32]* %23, i64 %230
  %232 = getelementptr inbounds [3 x i32], [3 x i32]* %231, i64 0, i64 2
  %233 = load i32, i32* %232, align 4
  %234 = load i32, i32* %15, align 4
  %235 = sext i32 %234 to i64
  %236 = getelementptr inbounds [3 x i32], [3 x i32]* %23, i64 %235
  %237 = getelementptr inbounds [3 x i32], [3 x i32]* %236, i64 0, i64 0
  %238 = load i32, i32* %237, align 4
  %239 = load i32, i32* %15, align 4
  %240 = sext i32 %239 to i64
  %241 = getelementptr inbounds [3 x i32], [3 x i32]* %23, i64 %240
  %242 = getelementptr inbounds [3 x i32], [3 x i32]* %241, i64 0, i64 1
  %243 = load i32, i32* %242, align 4
  %244 = load i32, i32* %15, align 4
  %245 = sext i32 %244 to i64
  %246 = getelementptr inbounds [3 x i32], [3 x i32]* %23, i64 %245
  %247 = getelementptr inbounds [3 x i32], [3 x i32]* %246, i64 0, i64 2
  %248 = load i32, i32* %247, align 4
  %249 = load double, double* %7, align 8
  %250 = call i32 (i8*, ...) @printf(i8* getelementptr inbounds ([29 x i8], [29 x i8]* @.str.2, i64 0, i64 0), i32 %223, i32 %228, i32 %233, i32 %238, i32 %243, i32 %248, double %249)
  %251 = load i32, i32* %14, align 4
  %252 = sext i32 %251 to i64
  %253 = getelementptr inbounds [10 x [10 x double]], [10 x [10 x double]]* %6, i64 0, i64 %252
  %254 = load i32, i32* %15, align 4
  %255 = sext i32 %254 to i64
  %256 = getelementptr inbounds [10 x double], [10 x double]* %253, i64 0, i64 %255
  store double 0.000000e+00, double* %256, align 8
  store i32 -1, i32* %17, align 4
  store double 0.000000e+00, double* %7, align 8
  %257 = load i32, i32* %16, align 4
  %258 = add nsw i32 %257, 1
  store i32 %258, i32* %16, align 4
  br label %259

259:                                              ; preds = %218, %215, %212
  br label %260

260:                                              ; preds = %259
  %261 = load i32, i32* %18, align 4
  %262 = add nsw i32 %261, 1
  store i32 %262, i32* %18, align 4
  br label %189

263:                                              ; preds = %189
  br label %264

264:                                              ; preds = %263
  %265 = load i32, i32* %17, align 4
  %266 = add nsw i32 %265, 1
  store i32 %266, i32* %17, align 4
  br label %178

267:                                              ; preds = %185, %178
  store i32 0, i32* %1, align 4
  %268 = load i8*, i8** %4, align 8
  call void @llvm.stackrestore(i8* %268)
  %269 = load i32, i32* %1, align 4
  ret i32 %269
}